target datalayout = "e-m:e-p270:32:32-p271:32:32-p272:64:64-i64:64-i128:128-f80:128-n8:16:32:64-S128"
target triple = "x86_64-pc-linux-gnu"

%struct.MRIStepCouplingMem = type { i32, i32, i32, i32, i32, ptr, ptr, ptr, i32, ptr }

; Function Attrs: nounwind uwtable
define i32 @mriStep_RKCoeffs(ptr noundef %0, i32 noundef %1, ptr noundef %2, ptr noundef %3, ptr noundef %4) #0 {
  %6 = alloca i32, align 4
  %7 = alloca ptr, align 8
  %8 = alloca i32, align 4
  %9 = alloca ptr, align 8
  %10 = alloca ptr, align 8
  %11 = alloca ptr, align 8
  %12 = alloca i32, align 4
  %13 = alloca i32, align 4
  %14 = alloca double, align 8
  %15 = alloca i32, align 4
  store ptr %0, ptr %7, align 8, !tbaa !254
  store i32 %1, ptr %8, align 4, !tbaa !15
  store ptr %2, ptr %9, align 8, !tbaa !128
  store ptr %3, ptr %10, align 8, !tbaa !125
  store ptr %4, ptr %11, align 8, !tbaa !125
  call void @llvm.lifetime.start.p0(i64 4, ptr %12) #8
  call void @llvm.lifetime.start.p0(i64 4, ptr %13) #8
  call void @llvm.lifetime.start.p0(i64 8, ptr %14) #8
  %16 = load i32, ptr %8, align 4, !tbaa !15
  %17 = icmp slt i32 %16, 1
  br i1 %17, label %33, label %18

18:                                               ; preds = %5
  %19 = load i32, ptr %8, align 4, !tbaa !15
  %20 = load ptr, ptr %7, align 8, !tbaa !254
  %21 = getelementptr inbounds nuw %struct.MRIStepCouplingMem, ptr %20, i32 0, i32 2
  %22 = load i32, ptr %21, align 8, !tbaa !141
  %23 = icmp sgt i32 %19, %22
  br i1 %23, label %33, label %24

24:                                               ; preds = %18
  %25 = load ptr, ptr %9, align 8, !tbaa !128
  %26 = icmp ne ptr %25, null
  br i1 %26, label %27, label %33

27:                                               ; preds = %24
  %28 = load ptr, ptr %10, align 8, !tbaa !125
  %29 = icmp ne ptr %28, null
  br i1 %29, label %30, label %33

30:                                               ; preds = %27
  %31 = load ptr, ptr %11, align 8, !tbaa !125
  %32 = icmp ne ptr %31, null
  br i1 %32, label %34, label %33

33:                                               ; preds = %30, %27, %24, %18, %5
  store i32 -41, ptr %6, align 4
  store i32 1, ptr %15, align 4
  br label %195

34:                                               ; preds = %30
  store i32 0, ptr %12, align 4, !tbaa !15
  br label %35

35:                                               ; preds = %50, %34
  %36 = load i32, ptr %12, align 4, !tbaa !15
  %37 = load ptr, ptr %7, align 8, !tbaa !254
  %38 = getelementptr inbounds nuw %struct.MRIStepCouplingMem, ptr %37, i32 0, i32 2
  %39 = load i32, ptr %38, align 8, !tbaa !141
  %40 = icmp slt i32 %36, %39
  br i1 %40, label %41, label %53

41:                                               ; preds = %35
  %42 = load ptr, ptr %10, align 8, !tbaa !125
  %43 = load i32, ptr %12, align 4, !tbaa !15
  %44 = sext i32 %43 to i64
  %45 = getelementptr inbounds double, ptr %42, i64 %44
  store double 0.000000e+00, ptr %45, align 8, !tbaa !7
  %46 = load ptr, ptr %11, align 8, !tbaa !125
  %47 = load i32, ptr %12, align 4, !tbaa !15
  %48 = sext i32 %47 to i64
  %49 = getelementptr inbounds double, ptr %46, i64 %48
  store double 0.000000e+00, ptr %49, align 8, !tbaa !7
  br label %50

50:                                               ; preds = %41
  %51 = load i32, ptr %12, align 4, !tbaa !15
  %52 = add nsw i32 %51, 1
  store i32 %52, ptr %12, align 4, !tbaa !15
  br label %35

53:                                               ; preds = %35
  store i32 0, ptr %13, align 4, !tbaa !15
  br label %54

54:                                               ; preds = %191, %53
  %55 = load i32, ptr %13, align 4, !tbaa !15
  %56 = load ptr, ptr %7, align 8, !tbaa !254
  %57 = getelementptr inbounds nuw %struct.MRIStepCouplingMem, ptr %56, i32 0, i32 1
  %58 = load i32, ptr %57, align 4, !tbaa !164
  %59 = icmp slt i32 %55, %58
  br i1 %59, label %60, label %194

60:                                               ; preds = %54
  %61 = load i32, ptr %13, align 4, !tbaa !15
  %62 = sitofp i32 %61 to double
  %63 = fadd double %62, 1.000000e+00
  %64 = fdiv double 1.000000e+00, %63
  store double %64, ptr %14, align 8, !tbaa !7
  %65 = load ptr, ptr %7, align 8, !tbaa !254
  %66 = getelementptr inbounds nuw %struct.MRIStepCouplingMem, ptr %65, i32 0, i32 6
  %67 = load ptr, ptr %66, align 8, !tbaa !231
  %68 = icmp ne ptr %67, null
  br i1 %68, label %69, label %127

69:                                               ; preds = %60
  store i32 0, ptr %12, align 4, !tbaa !15
  br label %70

70:                                               ; preds = %123, %69
  %71 = load i32, ptr %12, align 4, !tbaa !15
  %72 = load i32, ptr %8, align 4, !tbaa !15
  %73 = load ptr, ptr %7, align 8, !tbaa !254
  %74 = getelementptr inbounds nuw %struct.MRIStepCouplingMem, ptr %73, i32 0, i32 2
  %75 = load i32, ptr %74, align 8, !tbaa !141
  %76 = sub nsw i32 %75, 1
  %77 = icmp slt i32 %72, %76
  br i1 %77, label %78, label %80

78:                                               ; preds = %70
  %79 = load i32, ptr %8, align 4, !tbaa !15
  br label %85

80:                                               ; preds = %70
  %81 = load ptr, ptr %7, align 8, !tbaa !254
  %82 = getelementptr inbounds nuw %struct.MRIStepCouplingMem, ptr %81, i32 0, i32 2
  %83 = load i32, ptr %82, align 8, !tbaa !141
  %84 = sub nsw i32 %83, 1
  br label %85

85:                                               ; preds = %80, %78
  %86 = phi i32 [ %79, %78 ], [ %84, %80 ]
  %87 = icmp slt i32 %71, %86
  br i1 %87, label %88, label %126

88:                                               ; preds = %85
  %89 = load ptr, ptr %9, align 8, !tbaa !128
  %90 = load i32, ptr %12, align 4, !tbaa !15
  %91 = sext i32 %90 to i64
  %92 = getelementptr inbounds i32, ptr %89, i64 %91
  %93 = load i32, ptr %92, align 4, !tbaa !15
  %94 = icmp sgt i32 %93, -1
  br i1 %94, label %95, label %122

95:                                               ; preds = %88
  %96 = load ptr, ptr %7, align 8, !tbaa !254
  %97 = getelementptr inbounds nuw %struct.MRIStepCouplingMem, ptr %96, i32 0, i32 6
  %98 = load ptr, ptr %97, align 8, !tbaa !231
  %99 = load i32, ptr %13, align 4, !tbaa !15
  %100 = sext i32 %99 to i64
  %101 = getelementptr inbounds ptr, ptr %98, i64 %100
  %102 = load ptr, ptr %101, align 8, !tbaa !233
  %103 = load i32, ptr %8, align 4, !tbaa !15
  %104 = sext i32 %103 to i64
  %105 = getelementptr inbounds ptr, ptr %102, i64 %104
  %106 = load ptr, ptr %105, align 8, !tbaa !125
  %107 = load i32, ptr %12, align 4, !tbaa !15
  %108 = sext i32 %107 to i64
  %109 = getelementptr inbounds double, ptr %106, i64 %108
  %110 = load double, ptr %109, align 8, !tbaa !7
  %111 = load double, ptr %14, align 8, !tbaa !7
  %112 = load ptr, ptr %10, align 8, !tbaa !125
  %113 = load ptr, ptr %9, align 8, !tbaa !128
  %114 = load i32, ptr %12, align 4, !tbaa !15
  %115 = sext i32 %114 to i64
  %116 = getelementptr inbounds i32, ptr %113, i64 %115
  %117 = load i32, ptr %116, align 4, !tbaa !15
  %118 = sext i32 %117 to i64
  %119 = getelementptr inbounds double, ptr %112, i64 %118
  %120 = load double, ptr %119, align 8, !tbaa !7
  %121 = call double @llvm.fmuladd.f64(double %110, double %111, double %120)
  store double %121, ptr %119, align 8, !tbaa !7
  br label %122

122:                                              ; preds = %95, %88
  br label %123

123:                                              ; preds = %122
  %124 = load i32, ptr %12, align 4, !tbaa !15
  %125 = add nsw i32 %124, 1
  store i32 %125, ptr %12, align 4, !tbaa !15
  br label %70

126:                                              ; preds = %85
  br label %127

127:                                              ; preds = %126, %60
  %128 = load ptr, ptr %7, align 8, !tbaa !254
  %129 = getelementptr inbounds nuw %struct.MRIStepCouplingMem, ptr %128, i32 0, i32 7
  %130 = load ptr, ptr %129, align 8, !tbaa !232
  %131 = icmp ne ptr %130, null
  br i1 %131, label %132, label %190

132:                                              ; preds = %127
  store i32 0, ptr %12, align 4, !tbaa !15
  br label %133

133:                                              ; preds = %186, %132
  %134 = load i32, ptr %12, align 4, !tbaa !15
  %135 = load i32, ptr %8, align 4, !tbaa !15
  %136 = load ptr, ptr %7, align 8, !tbaa !254
  %137 = getelementptr inbounds nuw %struct.MRIStepCouplingMem, ptr %136, i32 0, i32 2
  %138 = load i32, ptr %137, align 8, !tbaa !141
  %139 = sub nsw i32 %138, 1
  %140 = icmp slt i32 %135, %139
  br i1 %140, label %141, label %143

141:                                              ; preds = %133
  %142 = load i32, ptr %8, align 4, !tbaa !15
  br label %148

143:                                              ; preds = %133
  %144 = load ptr, ptr %7, align 8, !tbaa !254
  %145 = getelementptr inbounds nuw %struct.MRIStepCouplingMem, ptr %144, i32 0, i32 2
  %146 = load i32, ptr %145, align 8, !tbaa !141
  %147 = sub nsw i32 %146, 1
  br label %148

148:                                              ; preds = %143, %141
  %149 = phi i32 [ %142, %141 ], [ %147, %143 ]
  %150 = icmp sle i32 %134, %149
  br i1 %150, label %151, label %189

151:                                              ; preds = %148
  %152 = load ptr, ptr %9, align 8, !tbaa !128
  %153 = load i32, ptr %12, align 4, !tbaa !15
  %154 = sext i32 %153 to i64
  %155 = getelementptr inbounds i32, ptr %152, i64 %154
  %156 = load i32, ptr %155, align 4, !tbaa !15
  %157 = icmp sgt i32 %156, -1
  br i1 %157, label %158, label %185

158:                                              ; preds = %151
  %159 = load ptr, ptr %7, align 8, !tbaa !254
  %160 = getelementptr inbounds nuw %struct.MRIStepCouplingMem, ptr %159, i32 0, i32 7
  %161 = load ptr, ptr %160, align 8, !tbaa !232
  %162 = load i32, ptr %13, align 4, !tbaa !15
  %163 = sext i32 %162 to i64
  %164 = getelementptr inbounds ptr, ptr %161, i64 %163
  %165 = load ptr, ptr %164, align 8, !tbaa !233
  %166 = load i32, ptr %8, align 4, !tbaa !15
  %167 = sext i32 %166 to i64
  %168 = getelementptr inbounds ptr, ptr %165, i64 %167
  %169 = load ptr, ptr %168, align 8, !tbaa !125
  %170 = load i32, ptr %12, align 4, !tbaa !15
  %171 = sext i32 %170 to i64
  %172 = getelementptr inbounds double, ptr %169, i64 %171
  %173 = load double, ptr %172, align 8, !tbaa !7
  %174 = load double, ptr %14, align 8, !tbaa !7
  %175 = load ptr, ptr %11, align 8, !tbaa !125
  %176 = load ptr, ptr %9, align 8, !tbaa !128
  %177 = load i32, ptr %12, align 4, !tbaa !15
  %178 = sext i32 %177 to i64
  %179 = getelementptr inbounds i32, ptr %176, i64 %178
  %180 = load i32, ptr %179, align 4, !tbaa !15
  %181 = sext i32 %180 to i64
  %182 = getelementptr inbounds double, ptr %175, i64 %181
  %183 = load double, ptr %182, align 8, !tbaa !7
  %184 = call double @llvm.fmuladd.f64(double %173, double %174, double %183)
  store double %184, ptr %182, align 8, !tbaa !7
  br label %185

185:                                              ; preds = %158, %151
  br label %186

186:                                              ; preds = %185
  %187 = load i32, ptr %12, align 4, !tbaa !15
  %188 = add nsw i32 %187, 1
  store i32 %188, ptr %12, align 4, !tbaa !15
  br label %133

189:                                              ; preds = %148
  br label %190

190:                                              ; preds = %189, %127
  br label %191

191:                                              ; preds = %190
  %192 = load i32, ptr %13, align 4, !tbaa !15
  %193 = add nsw i32 %192, 1
  store i32 %193, ptr %13, align 4, !tbaa !15
  br label %54

194:                                              ; preds = %54
  store i32 0, ptr %6, align 4
  store i32 1, ptr %15, align 4
  br label %195

195:                                              ; preds = %194, %33
  call void @llvm.lifetime.end.p0(i64 8, ptr %14) #8
  call void @llvm.lifetime.end.p0(i64 4, ptr %13) #8
  call void @llvm.lifetime.end.p0(i64 4, ptr %12) #8
  %196 = load i32, ptr %6, align 4
  ret i32 %196
}