; Function Attrs: nofree norecurse nosync nounwind memory(read, argmem: readwrite, inaccessiblemem: none) uwtable
define range(i32 -41, 1) i32 @mriStep_RKCoeffs(ptr noundef readonly captures(none) %0, i32 noundef %1, ptr noundef readonly captures(address_is_null) %2, ptr noundef captures(address_is_null) %3, ptr noundef captures(address_is_null) %4) local_unnamed_addr #10 {
  %6 = icmp slt i32 %1, 1
  br i1 %6, label %.loopexit72, label %7

7:                                                ; preds = %5
  %8 = getelementptr inbounds nuw i8, ptr %0, i64 8
  %9 = load i32, ptr %8, align 8, !tbaa !130
  %10 = icmp sle i32 %1, %9
  %11 = icmp ne ptr %2, null
  %or.cond = and i1 %11, %10
  %12 = icmp ne ptr %3, null
  %or.cond3 = and i1 %12, %or.cond
  %13 = icmp ne ptr %4, null
  %or.cond5 = and i1 %13, %or.cond3
  br i1 %or.cond5, label %.lr.ph.preheader, label %.loopexit72

.lr.ph.preheader:                                 ; preds = %7
  %wide.trip.count = zext nneg i32 %9 to i64
  br label %.lr.ph

.preheader71:                                     ; preds = %.lr.ph
  %14 = getelementptr inbounds nuw i8, ptr %0, i64 4
  %15 = load i32, ptr %14, align 4, !tbaa !153
  %16 = icmp sgt i32 %15, 0
  br i1 %16, label %.lr.ph82, label %.loopexit72

.lr.ph82:                                         ; preds = %.preheader71
  %17 = getelementptr inbounds nuw i8, ptr %0, i64 32
  %18 = load ptr, ptr %17, align 8, !tbaa !217
  %.not = icmp eq ptr %18, null
  %19 = icmp sgt i32 %9, 1
  %20 = zext nneg i32 %1 to i64
  %21 = getelementptr inbounds nuw i8, ptr %0, i64 40
  %22 = load ptr, ptr %21, align 8, !tbaa !218
  %.not66 = icmp eq ptr %22, null
  %23 = add i32 %9, -1
  %.68 = tail call i32 @llvm.smin.i32(i32 %1, i32 %23)
  %.not6777 = icmp slt i32 %9, 1
  br i1 %.not, label %.lr.ph82.split.us, label %.lr.ph82.split

.lr.ph82.split.us:                                ; preds = %.lr.ph82
  %brmerge = or i1 %.not66, %.not6777
  br i1 %brmerge, label %.loopexit72, label %.preheader.us.preheader

.preheader.us.preheader:                          ; preds = %.lr.ph82.split.us
  %smax148 = tail call i32 @llvm.smax.i32(i32 %.68, i32 0)
  %24 = add nuw i32 %smax148, 1
  %wide.trip.count154 = zext nneg i32 %15 to i64
  %wide.trip.count149 = zext i32 %24 to i64
  br label %.preheader.us

.preheader.us:                                    ; preds = %.preheader.us.preheader, %..loopexit_crit_edge.us
  %indvars.iv151 = phi i64 [ 0, %.preheader.us.preheader ], [ %indvars.iv.next152, %..loopexit_crit_edge.us ]
  %indvars.iv.next152 = add nuw nsw i64 %indvars.iv151, 1
  %25 = trunc nuw nsw i64 %indvars.iv.next152 to i32
  %26 = uitofp nneg i32 %25 to double
  %27 = fdiv double 1.000000e+00, %26
  %28 = getelementptr inbounds nuw ptr, ptr %22, i64 %indvars.iv151
  br label %29

29:                                               ; preds = %.preheader.us, %43
  %indvars.iv145 = phi i64 [ 0, %.preheader.us ], [ %indvars.iv.next146, %43 ]
  %30 = getelementptr inbounds nuw i32, ptr %2, i64 %indvars.iv145
  %31 = load i32, ptr %30, align 4, !tbaa !119
  %32 = icmp sgt i32 %31, -1
  br i1 %32, label %33, label %43

33:                                               ; preds = %29
  %34 = load ptr, ptr %28, align 8, !tbaa !219
  %35 = getelementptr inbounds nuw ptr, ptr %34, i64 %20
  %36 = load ptr, ptr %35, align 8, !tbaa !221
  %37 = getelementptr inbounds nuw double, ptr %36, i64 %indvars.iv145
  %38 = load double, ptr %37, align 8, !tbaa !115
  %39 = zext nneg i32 %31 to i64
  %40 = getelementptr inbounds nuw double, ptr %4, i64 %39
  %41 = load double, ptr %40, align 8, !tbaa !115
  %42 = tail call double @llvm.fmuladd.f64(double %38, double %27, double %41)
  store double %42, ptr %40, align 8, !tbaa !115
  br label %43

43:                                               ; preds = %33, %29
  %indvars.iv.next146 = add nuw nsw i64 %indvars.iv145, 1
  %exitcond150.not = icmp eq i64 %indvars.iv.next146, %wide.trip.count149
  br i1 %exitcond150.not, label %..loopexit_crit_edge.us, label %29

..loopexit_crit_edge.us:                          ; preds = %43
  %exitcond155.not = icmp eq i64 %indvars.iv.next152, %wide.trip.count154
  br i1 %exitcond155.not, label %.loopexit72, label %.preheader.us

.lr.ph82.split:                                   ; preds = %.lr.ph82
  br i1 %.not66, label %.lr.ph82.split.split.us, label %.lr.ph82.split.split

.lr.ph82.split.split.us:                          ; preds = %.lr.ph82.split
  br i1 %19, label %.preheader69.us.us.preheader, label %.loopexit72

.preheader69.us.us.preheader:                     ; preds = %.lr.ph82.split.split.us
  %smax137 = tail call i32 @llvm.smax.i32(i32 %.68, i32 1)
  %wide.trip.count143 = zext nneg i32 %15 to i64
  %wide.trip.count138 = zext nneg i32 %smax137 to i64
  br label %.preheader69.us.us

.preheader69.us.us:                               ; preds = %.preheader69.us.us.preheader, %..loopexit70_crit_edge.us.us
  %indvars.iv140 = phi i64 [ 0, %.preheader69.us.us.preheader ], [ %indvars.iv.next141, %..loopexit70_crit_edge.us.us ]
  %indvars.iv.next141 = add nuw nsw i64 %indvars.iv140, 1
  %44 = trunc nuw nsw i64 %indvars.iv.next141 to i32
  %45 = uitofp nneg i32 %44 to double
  %46 = fdiv double 1.000000e+00, %45
  %47 = getelementptr inbounds nuw ptr, ptr %18, i64 %indvars.iv140
  br label %48

48:                                               ; preds = %.preheader69.us.us, %62
  %indvars.iv134 = phi i64 [ 0, %.preheader69.us.us ], [ %indvars.iv.next135, %62 ]
  %49 = getelementptr inbounds nuw i32, ptr %2, i64 %indvars.iv134
  %50 = load i32, ptr %49, align 4, !tbaa !119
  %51 = icmp sgt i32 %50, -1
  br i1 %51, label %52, label %62

52:                                               ; preds = %48
  %53 = load ptr, ptr %47, align 8, !tbaa !219
  %54 = getelementptr inbounds nuw ptr, ptr %53, i64 %20
  %55 = load ptr, ptr %54, align 8, !tbaa !221
  %56 = getelementptr inbounds nuw double, ptr %55, i64 %indvars.iv134
  %57 = load double, ptr %56, align 8, !tbaa !115
  %58 = zext nneg i32 %50 to i64
  %59 = getelementptr inbounds nuw double, ptr %3, i64 %58
  %60 = load double, ptr %59, align 8, !tbaa !115
  %61 = tail call double @llvm.fmuladd.f64(double %57, double %46, double %60)
  store double %61, ptr %59, align 8, !tbaa !115
  br label %62

62:                                               ; preds = %52, %48
  %indvars.iv.next135 = add nuw nsw i64 %indvars.iv134, 1
  %exitcond139.not = icmp eq i64 %indvars.iv.next135, %wide.trip.count138
  br i1 %exitcond139.not, label %..loopexit70_crit_edge.us.us, label %48

..loopexit70_crit_edge.us.us:                     ; preds = %62
  %exitcond144.not = icmp eq i64 %indvars.iv.next141, %wide.trip.count143
  br i1 %exitcond144.not, label %.loopexit72, label %.preheader69.us.us

.lr.ph82.split.split:                             ; preds = %.lr.ph82.split
  br i1 %19, label %.preheader69.us84.preheader, label %.lr.ph82.split.split.split

.preheader69.us84.preheader:                      ; preds = %.lr.ph82.split.split
  %smax120 = tail call i32 @llvm.smax.i32(i32 %.68, i32 1)
  %smax126 = tail call i32 @llvm.smax.i32(i32 %.68, i32 0)
  %63 = add nuw i32 %smax126, 1
  %wide.trip.count132 = zext nneg i32 %15 to i64
  %wide.trip.count121 = zext nneg i32 %smax120 to i64
  %wide.trip.count127 = zext i32 %63 to i64
  br label %.preheader69.us84

.preheader69.us84:                                ; preds = %.preheader69.us84.preheader, %.loopexit.us89
  %indvars.iv129 = phi i64 [ 0, %.preheader69.us84.preheader ], [ %indvars.iv.next130, %.loopexit.us89 ]
  %indvars.iv.next130 = add nuw nsw i64 %indvars.iv129, 1
  %64 = trunc nuw nsw i64 %indvars.iv.next130 to i32
  %65 = uitofp nneg i32 %64 to double
  %66 = fdiv double 1.000000e+00, %65
  %67 = getelementptr inbounds nuw ptr, ptr %18, i64 %indvars.iv129
  br label %68

68:                                               ; preds = %.preheader69.us84, %82
  %indvars.iv117 = phi i64 [ 0, %.preheader69.us84 ], [ %indvars.iv.next118, %82 ]
  %69 = getelementptr inbounds nuw i32, ptr %2, i64 %indvars.iv117
  %70 = load i32, ptr %69, align 4, !tbaa !119
  %71 = icmp sgt i32 %70, -1
  br i1 %71, label %72, label %82

72:                                               ; preds = %68
  %73 = load ptr, ptr %67, align 8, !tbaa !219
  %74 = getelementptr inbounds nuw ptr, ptr %73, i64 %20
  %75 = load ptr, ptr %74, align 8, !tbaa !221
  %76 = getelementptr inbounds nuw double, ptr %75, i64 %indvars.iv117
  %77 = load double, ptr %76, align 8, !tbaa !115
  %78 = zext nneg i32 %70 to i64
  %79 = getelementptr inbounds nuw double, ptr %3, i64 %78
  %80 = load double, ptr %79, align 8, !tbaa !115
  %81 = tail call double @llvm.fmuladd.f64(double %77, double %66, double %80)
  store double %81, ptr %79, align 8, !tbaa !115
  br label %82

82:                                               ; preds = %72, %68
  %indvars.iv.next118 = add nuw nsw i64 %indvars.iv117, 1
  %exitcond122.not = icmp eq i64 %indvars.iv.next118, %wide.trip.count121
  br i1 %exitcond122.not, label %..loopexit70_crit_edge.us92, label %68

83:                                               ; preds = %.lr.ph79.us93, %97
  %indvars.iv123 = phi i64 [ 0, %.lr.ph79.us93 ], [ %indvars.iv.next124, %97 ]
  %84 = getelementptr inbounds nuw i32, ptr %2, i64 %indvars.iv123
  %85 = load i32, ptr %84, align 4, !tbaa !119
  %86 = icmp sgt i32 %85, -1
  br i1 %86, label %87, label %97

87:                                               ; preds = %83
  %88 = load ptr, ptr %98, align 8, !tbaa !219
  %89 = getelementptr inbounds nuw ptr, ptr %88, i64 %20
  %90 = load ptr, ptr %89, align 8, !tbaa !221
  %91 = getelementptr inbounds nuw double, ptr %90, i64 %indvars.iv123
  %92 = load double, ptr %91, align 8, !tbaa !115
  %93 = zext nneg i32 %85 to i64
  %94 = getelementptr inbounds nuw double, ptr %4, i64 %93
  %95 = load double, ptr %94, align 8, !tbaa !115
  %96 = tail call double @llvm.fmuladd.f64(double %92, double %66, double %95)
  store double %96, ptr %94, align 8, !tbaa !115
  br label %97

97:                                               ; preds = %87, %83
  %indvars.iv.next124 = add nuw nsw i64 %indvars.iv123, 1
  %exitcond128.not = icmp eq i64 %indvars.iv.next124, %wide.trip.count127
  br i1 %exitcond128.not, label %.loopexit.us89, label %83

.loopexit.us89:                                   ; preds = %97, %..loopexit70_crit_edge.us92
  %exitcond133.not = icmp eq i64 %indvars.iv.next130, %wide.trip.count132
  br i1 %exitcond133.not, label %.loopexit72, label %.preheader69.us84

..loopexit70_crit_edge.us92:                      ; preds = %82
  br i1 %.not6777, label %.loopexit.us89, label %.lr.ph79.us93

.lr.ph79.us93:                                    ; preds = %..loopexit70_crit_edge.us92
  %98 = getelementptr inbounds nuw ptr, ptr %22, i64 %indvars.iv129
  br label %83

.lr.ph82.split.split.split:                       ; preds = %.lr.ph82.split.split
  br i1 %.not6777, label %.loopexit72, label %.preheader69.preheader

.preheader69.preheader:                           ; preds = %.lr.ph82.split.split.split
  %wide.trip.count115 = zext nneg i32 %15 to i64
  %99 = load i32, ptr %2, align 4, !tbaa !119
  %100 = icmp sgt i32 %99, -1
  %101 = zext nneg i32 %99 to i64
  %102 = getelementptr inbounds nuw double, ptr %4, i64 %101
  br label %.preheader69

.lr.ph:                                           ; preds = %.lr.ph.preheader, %.lr.ph
  %indvars.iv = phi i64 [ 0, %.lr.ph.preheader ], [ %indvars.iv.next, %.lr.ph ]
  %103 = getelementptr inbounds nuw double, ptr %3, i64 %indvars.iv
  store double 0.000000e+00, ptr %103, align 8, !tbaa !115
  %104 = getelementptr inbounds nuw double, ptr %4, i64 %indvars.iv
  store double 0.000000e+00, ptr %104, align 8, !tbaa !115
  %indvars.iv.next = add nuw nsw i64 %indvars.iv, 1
  %exitcond.not = icmp eq i64 %indvars.iv.next, %wide.trip.count
  br i1 %exitcond.not, label %.preheader71, label %.lr.ph

.preheader69:                                     ; preds = %.preheader69.preheader, %..loopexit_crit_edge
  %indvars.iv112 = phi i64 [ 0, %.preheader69.preheader ], [ %indvars.iv.next113, %..loopexit_crit_edge ]
  %indvars.iv.next113 = add nuw nsw i64 %indvars.iv112, 1
  br i1 %100, label %105, label %..loopexit_crit_edge

105:                                              ; preds = %.preheader69
  %106 = getelementptr inbounds nuw ptr, ptr %22, i64 %indvars.iv112
  %107 = trunc nuw nsw i64 %indvars.iv.next113 to i32
  %108 = uitofp nneg i32 %107 to double
  %109 = fdiv double 1.000000e+00, %108
  %110 = load ptr, ptr %106, align 8, !tbaa !219
  %111 = getelementptr inbounds nuw ptr, ptr %110, i64 %20
  %112 = load ptr, ptr %111, align 8, !tbaa !221
  %113 = load double, ptr %112, align 8, !tbaa !115
  %114 = load double, ptr %102, align 8, !tbaa !115
  %115 = tail call double @llvm.fmuladd.f64(double %113, double %109, double %114)
  store double %115, ptr %102, align 8, !tbaa !115
  br label %..loopexit_crit_edge

..loopexit_crit_edge:                             ; preds = %105, %.preheader69
  %exitcond116.not = icmp eq i64 %indvars.iv.next113, %wide.trip.count115
  br i1 %exitcond116.not, label %.loopexit72, label %.preheader69

.loopexit72:                                      ; preds = %..loopexit_crit_edge, %.loopexit.us89, %..loopexit70_crit_edge.us.us, %..loopexit_crit_edge.us, %.lr.ph82.split.us, %.lr.ph82.split.split.split, %.lr.ph82.split.split.us, %.preheader71, %5, %7
  %.0 = phi i32 [ -41, %7 ], [ -41, %5 ], [ 0, %.preheader71 ], [ 0, %.lr.ph82.split.us ], [ 0, %.lr.ph82.split.split.us ], [ 0, %.lr.ph82.split.split.split ], [ 0, %..loopexit_crit_edge.us ], [ 0, %..loopexit70_crit_edge.us.us ], [ 0, %.loopexit.us89 ], [ 0, %..loopexit_crit_edge ]
  ret i32 %.0
}